target datalayout = "e-m:e-p270:32:32-p271:32:32-p272:64:64-i64:64-i128:128-f80:128-n8:16:32:64-S128"
target triple = "x86_64-unknown-linux-gnu"

%"class.grpc_core::PromiseBasedCall::Completion" = type { i8 }
%class.anon.314 = type <{ ptr, ptr, %"class.grpc_core::PromiseBasedCall::Completion", [7 x i8] }>

@.str.7 = private unnamed_addr constant [116 x i8] c"generated/home/dtcxzyw/WorkSpace/Projects/compilers/llvm-opt-benchmark/bench/grpc/grpc/src/core/lib/surface/call.cc\00", align 1
@.str.116 = private unnamed_addr constant [21 x i8] c"index_ == kNullIndex\00", align 1

; Function Attrs: mustprogress nounwind uwtable
define linkonce_odr void @_ZN9grpc_core16PromiseBasedCall10CompletionD2Ev(ptr noundef nonnull align 1 dereferenceable(1) %this) unnamed_addr #5 comdat align 2 personality ptr @__gxx_personality_v0 {
entry:
  %this.addr = alloca ptr, align 8
  store ptr %this, ptr %this.addr, align 8
  %this1 = load ptr, ptr %this.addr, align 8
  br label %do.body

do.body:                                          ; preds = %entry
  %index_ = getelementptr inbounds %"class.grpc_core::PromiseBasedCall::Completion", ptr %this1, i32 0, i32 0
  %0 = load i8, ptr %index_, align 1
  %conv = zext i8 %0 to i32
  %cmp = icmp eq i32 %conv, 255
  %lnot = xor i1 %cmp, true
  br i1 %lnot, label %if.then, label %if.end

if.then:                                          ; preds = %do.body
  invoke void @gpr_assertion_failed(ptr noundef @.str.7, i32 noundef 2090, ptr noundef @.str.116) #17
          to label %invoke.cont unwind label %terminate.lpad

invoke.cont:                                      ; preds = %if.then
  unreachable

if.end:                                           ; preds = %do.body
  br label %do.cond

do.cond:                                          ; preds = %if.end
  br label %do.end

do.end:                                           ; preds = %do.cond
  ret void

terminate.lpad:                                   ; preds = %if.then
  %1 = landingpad { ptr, i32 }
          catch ptr null
  %2 = extractvalue { ptr, i32 } %1, 0
  call void @__clang_call_terminate(ptr %2) #18
  unreachable
}

; Function Attrs: mustprogress nounwind uwtable
define internal void @"_ZZN9grpc_core22ClientPromiseBasedCall24StartRecvInitialMetadataEP19grpc_metadata_arrayRKNS_16PromiseBasedCall10CompletionERNS_5Party11BulkSpawnerEEN3$_1D2Ev"(ptr noundef nonnull align 8 dereferenceable(17) %this) unnamed_addr #5 align 2 {
entry:
  %this.addr = alloca ptr, align 8
  store ptr %this, ptr %this.addr, align 8
  %this1 = load ptr, ptr %this.addr, align 8
  %0 = getelementptr inbounds %class.anon.314, ptr %this1, i32 0, i32 2
  call void @_ZN9grpc_core16PromiseBasedCall10CompletionD2Ev(ptr noundef nonnull align 1 dereferenceable(1) %0) #3
  ret void
}