; Function Attrs: mustprogress nounwind uwtable
define internal fastcc void @"_ZZN9grpc_core22ClientPromiseBasedCall24StartRecvInitialMetadataEP19grpc_metadata_arrayRKNS_16PromiseBasedCall10CompletionERNS_5Party11BulkSpawnerEEN3$_1D2Ev"(i8 %this.16.val) unnamed_addr #7 align 2 personality ptr @__gxx_personality_v0 {
entry:
  %cmp.not.i = icmp eq i8 %this.16.val, -1
  br i1 %cmp.not.i, label %_ZN9grpc_core16PromiseBasedCall10CompletionD2Ev.exit, label %if.then.i

if.then.i:                                        ; preds = %entry
  invoke void @gpr_assertion_failed(ptr noundef nonnull @.str.7, i32 noundef 2090, ptr noundef nonnull @.str.116) #29
          to label %invoke.cont.i unwind label %terminate.lpad.i

invoke.cont.i:                                    ; preds = %if.then.i
  unreachable

terminate.lpad.i:                                 ; preds = %if.then.i
  %0 = landingpad { ptr, i32 }
          catch ptr null
  %1 = extractvalue { ptr, i32 } %0, 0
  tail call void @__clang_call_terminate(ptr %1) #30
  unreachable

_ZN9grpc_core16PromiseBasedCall10CompletionD2Ev.exit: ; preds = %entry
  ret void
}